; Function Attrs: mustprogress uwtable
define hidden void @_ZN16fpa2bv_converter6mk_remEP9func_decljPKP4exprR7obj_refIS2_11ast_managerE(ptr noundef nonnull align 8 dereferenceable(496) %0, ptr noundef readonly captures(none) %1, i32 noundef %2, ptr noundef readonly captures(none) %3, ptr noundef nonnull align 8 dereferenceable(16) %4) local_unnamed_addr #3 align 2 personality ptr @__gxx_personality_v0 {
  %6 = alloca %class.obj_ref, align 8
  %7 = alloca %class.obj_ref, align 8
  call void @llvm.lifetime.start.p0(i64 16, ptr nonnull %6) #23
  %8 = getelementptr inbounds nuw i8, ptr %0, i64 8
  %9 = load ptr, ptr %8, align 8, !tbaa !130
  %10 = getelementptr inbounds nuw i8, ptr %6, i64 8
  store ptr %9, ptr %10, align 8, !tbaa !6
  call void @llvm.lifetime.start.p0(i64 16, ptr nonnull %7) #23
  %11 = getelementptr inbounds nuw i8, ptr %7, i64 8
  store ptr %9, ptr %11, align 8, !tbaa !6
  %12 = load ptr, ptr %3, align 8, !tbaa !122
  %.not.i = icmp eq ptr %12, null
  br i1 %.not.i, label %16, label %_ZN11ast_manager7inc_refEP3ast.exit.i

_ZN11ast_manager7inc_refEP3ast.exit.i:            ; preds = %5
  %13 = getelementptr inbounds nuw i8, ptr %12, i64 8
  %14 = load i32, ptr %13, align 4, !tbaa !125
  %15 = add i32 %14, 1
  store i32 %15, ptr %13, align 4, !tbaa !125
  br label %16

16:                                               ; preds = %_ZN11ast_manager7inc_refEP3ast.exit.i, %5
  store ptr %12, ptr %6, align 8, !tbaa !164
  %17 = getelementptr inbounds nuw i8, ptr %3, i64 8
  %18 = load ptr, ptr %17, align 8, !tbaa !122
  %.not.i6 = icmp eq ptr %18, null
  br i1 %.not.i6, label %22, label %_ZN11ast_manager7inc_refEP3ast.exit.i7

_ZN11ast_manager7inc_refEP3ast.exit.i7:           ; preds = %16
  %19 = getelementptr inbounds nuw i8, ptr %18, i64 8
  %20 = load i32, ptr %19, align 4, !tbaa !125
  %21 = add i32 %20, 1
  store i32 %21, ptr %19, align 4, !tbaa !125
  br label %22

22:                                               ; preds = %16, %_ZN11ast_manager7inc_refEP3ast.exit.i7
  store ptr %18, ptr %7, align 8, !tbaa !164
  %23 = getelementptr inbounds nuw i8, ptr %1, i64 40
  %24 = load ptr, ptr %23, align 8, !tbaa !153
  invoke void @_ZN16fpa2bv_converter6mk_remEP4sortR7obj_refI4expr11ast_managerES6_S6_(ptr noundef nonnull align 8 dereferenceable(496) %0, ptr noundef %24, ptr noundef nonnull align 8 dereferenceable(16) %6, ptr noundef nonnull align 8 dereferenceable(16) %7, ptr noundef nonnull align 8 dereferenceable(16) %4)
          to label %25 unwind label %44

25:                                               ; preds = %22
  br i1 %.not.i6, label %_ZN7obj_refI4expr11ast_managerED2Ev.exit, label %26

26:                                               ; preds = %25
  %27 = getelementptr inbounds nuw i8, ptr %18, i64 8
  %28 = load i32, ptr %27, align 4, !tbaa !125
  %29 = add i32 %28, -1
  store i32 %29, ptr %27, align 4, !tbaa !125
  %30 = icmp eq i32 %29, 0
  br i1 %30, label %31, label %_ZN7obj_refI4expr11ast_managerED2Ev.exit

31:                                               ; preds = %26
  invoke void @_ZN11ast_manager11delete_nodeEP3ast(ptr noundef nonnull align 8 dereferenceable(976) %9, ptr noundef nonnull %18)
          to label %_ZN7obj_refI4expr11ast_managerED2Ev.exit unwind label %32

32:                                               ; preds = %31
  %33 = landingpad { ptr, i32 }
          catch ptr null
  %34 = extractvalue { ptr, i32 } %33, 0
  tail call void @__clang_call_terminate(ptr %34) #24
  unreachable

_ZN7obj_refI4expr11ast_managerED2Ev.exit:         ; preds = %25, %26, %31
  call void @llvm.lifetime.end.p0(i64 16, ptr nonnull %7) #23
  br i1 %.not.i, label %_ZN7obj_refI4expr11ast_managerED2Ev.exit12, label %35

35:                                               ; preds = %_ZN7obj_refI4expr11ast_managerED2Ev.exit
  %36 = getelementptr inbounds nuw i8, ptr %12, i64 8
  %37 = load i32, ptr %36, align 4, !tbaa !125
  %38 = add i32 %37, -1
  store i32 %38, ptr %36, align 4, !tbaa !125
  %39 = icmp eq i32 %38, 0
  br i1 %39, label %40, label %_ZN7obj_refI4expr11ast_managerED2Ev.exit12

40:                                               ; preds = %35
  invoke void @_ZN11ast_manager11delete_nodeEP3ast(ptr noundef nonnull align 8 dereferenceable(976) %9, ptr noundef nonnull %12)
          to label %_ZN7obj_refI4expr11ast_managerED2Ev.exit12 unwind label %41

41:                                               ; preds = %40
  %42 = landingpad { ptr, i32 }
          catch ptr null
  %43 = extractvalue { ptr, i32 } %42, 0
  tail call void @__clang_call_terminate(ptr %43) #24
  unreachable

_ZN7obj_refI4expr11ast_managerED2Ev.exit12:       ; preds = %_ZN7obj_refI4expr11ast_managerED2Ev.exit, %35, %40
  call void @llvm.lifetime.end.p0(i64 16, ptr nonnull %6) #23
  ret void

44:                                               ; preds = %22
  %45 = landingpad { ptr, i32 }
          cleanup
  call void @_ZN7obj_refI4expr11ast_managerED2Ev(ptr noundef nonnull align 8 dereferenceable(16) %7) #23
  call void @llvm.lifetime.end.p0(i64 16, ptr nonnull %7) #23
  call void @_ZN7obj_refI4expr11ast_managerED2Ev(ptr noundef nonnull align 8 dereferenceable(16) %6) #23
  call void @llvm.lifetime.end.p0(i64 16, ptr nonnull %6) #23
  resume { ptr, i32 } %45
}